target datalayout = "e-m:e-p270:32:32-p271:32:32-p272:64:64-i64:64-i128:128-f80:128-n8:16:32:64-S128"
target triple = "x86_64-pc-linux-gnu"

%struct._object = type { %union.anon, ptr }
%union.anon = type { i64 }
%struct.PyMutex = type { i8 }

@.str.10 = private unnamed_addr constant [13 x i8] c"m._bits == 1\00", align 1
@.str.11 = private unnamed_addr constant [49 x i8] c"../cpython/Modules/_testinternalcapi/test_lock.c\00", align 1
@__PRETTY_FUNCTION__.test_lock_basic = private unnamed_addr constant [50 x i8] c"PyObject *test_lock_basic(PyObject *, PyObject *)\00", align 1
@.str.12 = private unnamed_addr constant [13 x i8] c"m._bits == 0\00", align 1
@_Py_NoneStruct = external global %struct._object, align 8

; Function Attrs: inlinehint nounwind uwtable
define internal i32 @_Py_atomic_compare_exchange_uint8(ptr noundef %0, ptr noundef %1, i8 noundef zeroext %2) #4 {
  %4 = alloca ptr, align 8
  %5 = alloca ptr, align 8
  %6 = alloca i8, align 1
  %7 = alloca i8, align 1
  %8 = alloca i8, align 1
  store ptr %0, ptr %4, align 8, !tbaa !41
  store ptr %1, ptr %5, align 8, !tbaa !41
  store i8 %2, ptr %6, align 1, !tbaa !15
  %9 = load ptr, ptr %4, align 8, !tbaa !41
  %10 = load ptr, ptr %5, align 8, !tbaa !41
  %11 = load i8, ptr %6, align 1, !tbaa !15
  store i8 %11, ptr %7, align 1, !tbaa !15
  %12 = load i8, ptr %10, align 1
  %13 = load i8, ptr %7, align 1
  %14 = cmpxchg ptr %9, i8 %12, i8 %13 seq_cst seq_cst, align 1
  %15 = extractvalue { i8, i1 } %14, 0
  %16 = extractvalue { i8, i1 } %14, 1
  br i1 %16, label %18, label %17

17:                                               ; preds = %3
  store i8 %15, ptr %10, align 1
  br label %18

18:                                               ; preds = %17, %3
  %19 = zext i1 %16 to i8
  store i8 %19, ptr %8, align 1, !tbaa !43
  %20 = load i8, ptr %8, align 1, !tbaa !43, !range !45, !noundef !46
  %21 = trunc i8 %20 to i1
  %22 = zext i1 %21 to i32
  ret i32 %22
}

; Function Attrs: inlinehint nounwind uwtable
define internal void @_PyMutex_Unlock(ptr noundef %0) #4 {
  %2 = alloca ptr, align 8
  %3 = alloca i8, align 1
  store ptr %0, ptr %2, align 8, !tbaa !39
  call void @llvm.lifetime.start.p0(i64 1, ptr %3) #8
  store i8 1, ptr %3, align 1, !tbaa !15
  %4 = load ptr, ptr %2, align 8, !tbaa !39
  %5 = getelementptr inbounds nuw %struct.PyMutex, ptr %4, i32 0, i32 0
  %6 = call i32 @_Py_atomic_compare_exchange_uint8(ptr noundef %5, ptr noundef %3, i8 noundef zeroext 0)
  %7 = icmp ne i32 %6, 0
  br i1 %7, label %10, label %8

8:                                                ; preds = %1
  %9 = load ptr, ptr %2, align 8, !tbaa !39
  call void @PyMutex_Unlock(ptr noundef %9)
  br label %10

10:                                               ; preds = %8, %1
  call void @llvm.lifetime.end.p0(i64 1, ptr %3) #8
  ret void
}

; Function Attrs: inlinehint nounwind uwtable
define internal void @_PyMutex_Lock(ptr noundef %0) #4 {
  %2 = alloca ptr, align 8
  %3 = alloca i8, align 1
  store ptr %0, ptr %2, align 8, !tbaa !39
  call void @llvm.lifetime.start.p0(i64 1, ptr %3) #8
  store i8 0, ptr %3, align 1, !tbaa !15
  %4 = load ptr, ptr %2, align 8, !tbaa !39
  %5 = getelementptr inbounds nuw %struct.PyMutex, ptr %4, i32 0, i32 0
  %6 = call i32 @_Py_atomic_compare_exchange_uint8(ptr noundef %5, ptr noundef %3, i8 noundef zeroext 1)
  %7 = icmp ne i32 %6, 0
  br i1 %7, label %10, label %8

8:                                                ; preds = %1
  %9 = load ptr, ptr %2, align 8, !tbaa !39
  call void @PyMutex_Lock(ptr noundef %9)
  br label %10

10:                                               ; preds = %8, %1
  call void @llvm.lifetime.end.p0(i64 1, ptr %3) #8
  ret void
}

; Function Attrs: nounwind uwtable
define internal ptr @test_lock_basic(ptr noundef %0, ptr noundef %1) #0 {
  %3 = alloca ptr, align 8
  %4 = alloca ptr, align 8
  %5 = alloca %struct.PyMutex, align 1
  store ptr %0, ptr %3, align 8, !tbaa !3
  store ptr %1, ptr %4, align 8, !tbaa !3
  call void @llvm.lifetime.start.p0(i64 1, ptr %5) #8
  call void @llvm.memset.p0.i64(ptr align 1 %5, i8 0, i64 1, i1 false)
  call void @_PyMutex_Lock(ptr noundef %5)
  %6 = getelementptr inbounds nuw %struct.PyMutex, ptr %5, i32 0, i32 0
  %7 = load i8, ptr %6, align 1, !tbaa !8
  %8 = zext i8 %7 to i32
  %9 = icmp eq i32 %8, 1
  br i1 %9, label %10, label %11

10:                                               ; preds = %2
  br label %13

11:                                               ; preds = %2
  call void @__assert_fail(ptr noundef @.str.10, ptr noundef @.str.11, i32 noundef 39, ptr noundef @__PRETTY_FUNCTION__.test_lock_basic) #9
  unreachable

12:                                               ; No predecessors!
  br label %13

13:                                               ; preds = %12, %10
  call void @_PyMutex_Unlock(ptr noundef %5)
  %14 = getelementptr inbounds nuw %struct.PyMutex, ptr %5, i32 0, i32 0
  %15 = load i8, ptr %14, align 1, !tbaa !8
  %16 = zext i8 %15 to i32
  %17 = icmp eq i32 %16, 0
  br i1 %17, label %18, label %19

18:                                               ; preds = %13
  br label %21

19:                                               ; preds = %13
  call void @__assert_fail(ptr noundef @.str.12, ptr noundef @.str.11, i32 noundef 41, ptr noundef @__PRETTY_FUNCTION__.test_lock_basic) #9
  unreachable

20:                                               ; No predecessors!
  br label %21

21:                                               ; preds = %20, %18
  call void @llvm.lifetime.end.p0(i64 1, ptr %5) #8
  ret ptr @_Py_NoneStruct
}