; Function Attrs: nounwind uwtable
define internal noundef nonnull ptr @test_lock_basic(ptr readnone captures(none) %0, ptr readnone captures(none) %1) #0 {
  %3 = alloca %struct.PyMutex, align 1
  call void @llvm.lifetime.start.p0(i64 1, ptr nonnull %3) #6
  store i8 0, ptr %3, align 1
  %4 = cmpxchg ptr %3, i8 0, i8 1 seq_cst seq_cst, align 1
  %5 = extractvalue { i8, i1 } %4, 1
  br i1 %5, label %_PyMutex_Lock.exit, label %6

6:                                                ; preds = %2
  call void @PyMutex_Lock(ptr noundef nonnull %3) #6
  br label %_PyMutex_Lock.exit

_PyMutex_Lock.exit:                               ; preds = %2, %6
  %7 = load i8, ptr %3, align 1, !tbaa !3
  %8 = icmp eq i8 %7, 1
  br i1 %8, label %10, label %9

9:                                                ; preds = %_PyMutex_Lock.exit
  call void @__assert_fail(ptr noundef nonnull @.str.10, ptr noundef nonnull @.str.11, i32 noundef 39, ptr noundef nonnull @__PRETTY_FUNCTION__.test_lock_basic) #7
  unreachable

10:                                               ; preds = %_PyMutex_Lock.exit
  %11 = cmpxchg ptr %3, i8 1, i8 0 seq_cst seq_cst, align 1
  %12 = extractvalue { i8, i1 } %11, 1
  br i1 %12, label %_PyMutex_Unlock.exit, label %13

13:                                               ; preds = %10
  call void @PyMutex_Unlock(ptr noundef nonnull %3) #6
  br label %_PyMutex_Unlock.exit

_PyMutex_Unlock.exit:                             ; preds = %10, %13
  %14 = load i8, ptr %3, align 1, !tbaa !3
  %15 = icmp eq i8 %14, 0
  br i1 %15, label %17, label %16

16:                                               ; preds = %_PyMutex_Unlock.exit
  call void @__assert_fail(ptr noundef nonnull @.str.12, ptr noundef nonnull @.str.11, i32 noundef 41, ptr noundef nonnull @__PRETTY_FUNCTION__.test_lock_basic) #7
  unreachable

17:                                               ; preds = %_PyMutex_Unlock.exit
  call void @llvm.lifetime.end.p0(i64 1, ptr nonnull %3) #6
  ret ptr @_Py_NoneStruct
}